target datalayout = "e-m:e-p270:32:32-p271:32:32-p272:64:64-i64:64-i128:128-f80:128-n8:16:32:64-S128"
target triple = "x86_64-pc-linux-gnu"

%struct._BBuf = type { ptr, i32, i32 }
%struct.NodeBase = type { i32 }
%struct.CClassNode = type { %struct.NodeBase, i32, [8 x i32], ptr }

; Function Attrs: nounwind sspstrong uwtable
define dso_local i32 @onig_is_in_code_range(ptr noundef %0, i32 noundef %1) #0 {
  %3 = alloca ptr, align 8
  %4 = alloca i32, align 4
  %5 = alloca i32, align 4
  %6 = alloca ptr, align 8
  %7 = alloca i32, align 4
  %8 = alloca i32, align 4
  %9 = alloca i32, align 4
  store ptr %0, ptr %3, align 8, !tbaa !35
  store i32 %1, ptr %4, align 4, !tbaa !7
  call void @llvm.lifetime.start.p0(i64 4, ptr %5) #11
  call void @llvm.lifetime.start.p0(i64 8, ptr %6) #11
  call void @llvm.lifetime.start.p0(i64 4, ptr %7) #11
  call void @llvm.lifetime.start.p0(i64 4, ptr %8) #11
  call void @llvm.lifetime.start.p0(i64 4, ptr %9) #11
  %10 = load ptr, ptr %3, align 8, !tbaa !35
  %11 = load i32, ptr %10, align 4, !tbaa !7
  store i32 %11, ptr %5, align 4, !tbaa !7
  %12 = load ptr, ptr %3, align 8, !tbaa !35
  store ptr %12, ptr %6, align 8, !tbaa !39
  %13 = load ptr, ptr %6, align 8, !tbaa !39
  %14 = getelementptr i32, ptr %13, i32 1
  store ptr %14, ptr %6, align 8, !tbaa !39
  store i32 0, ptr %7, align 4, !tbaa !7
  %15 = load i32, ptr %5, align 4, !tbaa !7
  store i32 %15, ptr %8, align 4, !tbaa !7
  br label %16

16:                                               ; preds = %39, %2
  %17 = load i32, ptr %7, align 4, !tbaa !7
  %18 = load i32, ptr %8, align 4, !tbaa !7
  %19 = icmp ult i32 %17, %18
  br i1 %19, label %20, label %40

20:                                               ; preds = %16
  %21 = load i32, ptr %7, align 4, !tbaa !7
  %22 = load i32, ptr %8, align 4, !tbaa !7
  %23 = add i32 %21, %22
  %24 = lshr i32 %23, 1
  store i32 %24, ptr %9, align 4, !tbaa !7
  %25 = load i32, ptr %4, align 4, !tbaa !7
  %26 = load ptr, ptr %6, align 8, !tbaa !39
  %27 = load i32, ptr %9, align 4, !tbaa !7
  %28 = mul i32 %27, 2
  %29 = add i32 %28, 1
  %30 = zext i32 %29 to i64
  %31 = getelementptr i32, ptr %26, i64 %30
  %32 = load i32, ptr %31, align 4, !tbaa !7
  %33 = icmp ugt i32 %25, %32
  br i1 %33, label %34, label %37

34:                                               ; preds = %20
  %35 = load i32, ptr %9, align 4, !tbaa !7
  %36 = add i32 %35, 1
  store i32 %36, ptr %7, align 4, !tbaa !7
  br label %39

37:                                               ; preds = %20
  %38 = load i32, ptr %9, align 4, !tbaa !7
  store i32 %38, ptr %8, align 4, !tbaa !7
  br label %39

39:                                               ; preds = %37, %34
  br label %16, !llvm.loop !185

40:                                               ; preds = %16
  %41 = load i32, ptr %7, align 4, !tbaa !7
  %42 = load i32, ptr %5, align 4, !tbaa !7
  %43 = icmp ult i32 %41, %42
  br i1 %43, label %44, label %53

44:                                               ; preds = %40
  %45 = load i32, ptr %4, align 4, !tbaa !7
  %46 = load ptr, ptr %6, align 8, !tbaa !39
  %47 = load i32, ptr %7, align 4, !tbaa !7
  %48 = mul i32 %47, 2
  %49 = zext i32 %48 to i64
  %50 = getelementptr i32, ptr %46, i64 %49
  %51 = load i32, ptr %50, align 4, !tbaa !7
  %52 = icmp uge i32 %45, %51
  br label %53

53:                                               ; preds = %44, %40
  %54 = phi i1 [ false, %40 ], [ %52, %44 ]
  %55 = select i1 %54, i32 1, i32 0
  call void @llvm.lifetime.end.p0(i64 4, ptr %9) #11
  call void @llvm.lifetime.end.p0(i64 4, ptr %8) #11
  call void @llvm.lifetime.end.p0(i64 4, ptr %7) #11
  call void @llvm.lifetime.end.p0(i64 8, ptr %6) #11
  call void @llvm.lifetime.end.p0(i64 4, ptr %5) #11
  ret i32 %55
}

; Function Attrs: nounwind sspstrong uwtable
define dso_local i32 @onig_is_code_in_cc_len(i32 noundef %0, i32 noundef %1, ptr noundef %2) #0 {
  %4 = alloca i32, align 4
  %5 = alloca i32, align 4
  %6 = alloca i32, align 4
  %7 = alloca ptr, align 8
  %8 = alloca i32, align 4
  %9 = alloca i32, align 4
  store i32 %0, ptr %5, align 4, !tbaa !7
  store i32 %1, ptr %6, align 4, !tbaa !7
  store ptr %2, ptr %7, align 8, !tbaa !36
  call void @llvm.lifetime.start.p0(i64 4, ptr %8) #11
  %10 = load i32, ptr %5, align 4, !tbaa !7
  %11 = icmp sgt i32 %10, 1
  br i1 %11, label %15, label %12

12:                                               ; preds = %3
  %13 = load i32, ptr %6, align 4, !tbaa !7
  %14 = icmp uge i32 %13, 256
  br i1 %14, label %15, label %32

15:                                               ; preds = %12, %3
  %16 = load ptr, ptr %7, align 8, !tbaa !36
  %17 = getelementptr inbounds nuw %struct.CClassNode, ptr %16, i32 0, i32 3
  %18 = load ptr, ptr %17, align 8, !tbaa !186
  %19 = icmp eq ptr %18, null
  br i1 %19, label %20, label %21

20:                                               ; preds = %15
  store i32 0, ptr %8, align 4, !tbaa !7
  br label %31

21:                                               ; preds = %15
  %22 = load ptr, ptr %7, align 8, !tbaa !36
  %23 = getelementptr inbounds nuw %struct.CClassNode, ptr %22, i32 0, i32 3
  %24 = load ptr, ptr %23, align 8, !tbaa !186
  %25 = getelementptr inbounds nuw %struct._BBuf, ptr %24, i32 0, i32 0
  %26 = load ptr, ptr %25, align 8, !tbaa !16
  %27 = load i32, ptr %6, align 4, !tbaa !7
  %28 = call i32 @onig_is_in_code_range(ptr noundef %26, i32 noundef %27)
  %29 = icmp ne i32 %28, 0
  %30 = select i1 %29, i32 1, i32 0
  store i32 %30, ptr %8, align 4, !tbaa !7
  br label %31

31:                                               ; preds = %21, %20
  br label %46

32:                                               ; preds = %12
  %33 = load ptr, ptr %7, align 8, !tbaa !36
  %34 = getelementptr inbounds nuw %struct.CClassNode, ptr %33, i32 0, i32 2
  %35 = load i32, ptr %6, align 4, !tbaa !7
  %36 = sdiv i32 %35, 32
  %37 = sext i32 %36 to i64
  %38 = getelementptr [8 x i32], ptr %34, i64 0, i64 %37
  %39 = load i32, ptr %38, align 4, !tbaa !7
  %40 = load i32, ptr %6, align 4, !tbaa !7
  %41 = srem i32 %40, 32
  %42 = shl i32 1, %41
  %43 = and i32 %39, %42
  %44 = icmp eq i32 %43, 0
  %45 = select i1 %44, i32 0, i32 1
  store i32 %45, ptr %8, align 4, !tbaa !7
  br label %46

46:                                               ; preds = %32, %31
  %47 = load ptr, ptr %7, align 8, !tbaa !36
  %48 = getelementptr inbounds nuw %struct.CClassNode, ptr %47, i32 0, i32 1
  %49 = load i32, ptr %48, align 4, !tbaa !188
  %50 = and i32 %49, 1
  %51 = icmp ne i32 %50, 0
  br i1 %51, label %52, label %57

52:                                               ; preds = %46
  %53 = load i32, ptr %8, align 4, !tbaa !7
  %54 = icmp ne i32 %53, 0
  %55 = xor i1 %54, true
  %56 = zext i1 %55 to i32
  store i32 %56, ptr %4, align 4
  store i32 1, ptr %9, align 4
  br label %59

57:                                               ; preds = %46
  %58 = load i32, ptr %8, align 4, !tbaa !7
  store i32 %58, ptr %4, align 4
  store i32 1, ptr %9, align 4
  br label %59

59:                                               ; preds = %57, %52
  call void @llvm.lifetime.end.p0(i64 4, ptr %8) #11
  %60 = load i32, ptr %4, align 4
  ret i32 %60
}