; Function Attrs: nofree norecurse nosync nounwind sspstrong memory(read, inaccessiblemem: none) uwtable
define dso_local range(i32 0, 2) i32 @onig_is_code_in_cc_len(i32 noundef %0, i32 noundef %1, ptr noundef readonly captures(none) %2) local_unnamed_addr #9 {
  %4 = icmp sgt i32 %0, 1
  %5 = icmp ugt i32 %1, 255
  %or.cond = or i1 %4, %5
  br i1 %or.cond, label %6, label %31

6:                                                ; preds = %3
  %7 = getelementptr inbounds nuw i8, ptr %2, i64 40
  %8 = load ptr, ptr %7, align 8, !tbaa !192
  %9 = icmp eq ptr %8, null
  br i1 %9, label %onig_is_in_code_range.exit, label %10

10:                                               ; preds = %6
  %11 = load ptr, ptr %8, align 8, !tbaa !11
  %12 = load i32, ptr %11, align 4, !tbaa !7
  %13 = getelementptr i8, ptr %11, i64 4
  %.not.i = icmp eq i32 %12, 0
  br i1 %.not.i, label %._crit_edge.i, label %.lr.ph.i

.lr.ph.i:                                         ; preds = %10, %.lr.ph.i
  %.020.i = phi i32 [ %.1.i, %.lr.ph.i ], [ %12, %10 ]
  %.01719.i = phi i32 [ %.118.i, %.lr.ph.i ], [ 0, %10 ]
  %14 = add i32 %.01719.i, %.020.i
  %15 = lshr i32 %14, 1
  %16 = or i32 %14, 1
  %17 = zext i32 %16 to i64
  %18 = getelementptr i32, ptr %13, i64 %17
  %19 = load i32, ptr %18, align 4, !tbaa !7
  %20 = icmp ugt i32 %1, %19
  %21 = add nuw i32 %15, 1
  %.118.i = select i1 %20, i32 %21, i32 %.01719.i
  %.1.i = select i1 %20, i32 %.020.i, i32 %15
  %22 = icmp ult i32 %.118.i, %.1.i
  br i1 %22, label %.lr.ph.i, label %._crit_edge.i, !llvm.loop !223

._crit_edge.i:                                    ; preds = %.lr.ph.i, %10
  %.017.lcssa.i = phi i32 [ 0, %10 ], [ %.118.i, %.lr.ph.i ]
  %23 = icmp ult i32 %.017.lcssa.i, %12
  br i1 %23, label %24, label %onig_is_in_code_range.exit

24:                                               ; preds = %._crit_edge.i
  %25 = shl i32 %.017.lcssa.i, 1
  %26 = zext i32 %25 to i64
  %27 = getelementptr i32, ptr %13, i64 %26
  %28 = load i32, ptr %27, align 4, !tbaa !7
  %29 = icmp uge i32 %1, %28
  %30 = zext i1 %29 to i32
  br label %onig_is_in_code_range.exit

31:                                               ; preds = %3
  %32 = getelementptr inbounds nuw i8, ptr %2, i64 8
  %33 = lshr i32 %1, 5
  %34 = zext nneg i32 %33 to i64
  %35 = getelementptr [8 x i32], ptr %32, i64 0, i64 %34
  %36 = load i32, ptr %35, align 4, !tbaa !7
  %37 = and i32 %1, 31
  %38 = lshr i32 %36, %37
  %39 = and i32 %38, 1
  br label %onig_is_in_code_range.exit

onig_is_in_code_range.exit:                       ; preds = %24, %._crit_edge.i, %6, %31
  %.0 = phi i32 [ %39, %31 ], [ 0, %6 ], [ 0, %._crit_edge.i ], [ %30, %24 ]
  %40 = getelementptr inbounds nuw i8, ptr %2, i64 4
  %41 = load i32, ptr %40, align 4, !tbaa !195
  %42 = and i32 %41, 1
  %.012 = xor i32 %42, %.0
  ret i32 %.012
}